; ModuleID = '35/2220.c'
source_filename = "35/2220.c"
target datalayout = "e-m:e-p270:32:32-p271:32:32-p272:64:64-i64:64-f80:128-n8:16:32:64-S128"
target triple = "x86_64-pc-linux-gnu"

@.str = private unnamed_addr constant [3 x i8] c"%d\00", align 1
@.str.1 = private unnamed_addr constant [6 x i8] c"%d+%d\00", align 1
@.str.2 = private unnamed_addr constant [3 x i8] c"No\00", align 1

; Function Attrs: noinline nounwind uwtable
define dso_local i32 @max(i32 %0, [8 x i32]* %1, i32 %2, i32 %3) #0 {
  %5 = alloca i32, align 4
  %6 = alloca i32, align 4
  %7 = alloca [8 x i32]*, align 8
  %8 = alloca i32, align 4
  %9 = alloca i32, align 4
  %10 = alloca i32, align 4
  store i32 %0, i32* %6, align 4
  store [8 x i32]* %1, [8 x i32]** %7, align 8
  store i32 %2, i32* %8, align 4
  store i32 %3, i32* %9, align 4
  store i32 0, i32* %10, align 4
  br label %11

11:                                               ; preds = %28, %4
  %12 = load i32, i32* %10, align 4
  %13 = load i32, i32* %9, align 4
  %14 = icmp slt i32 %12, %13
  br i1 %14, label %15, label %31

15:                                               ; preds = %11
  %16 = load i32, i32* %6, align 4
  %17 = load [8 x i32]*, [8 x i32]** %7, align 8
  %18 = load i32, i32* %8, align 4
  %19 = sext i32 %18 to i64
  %20 = getelementptr inbounds [8 x i32], [8 x i32]* %17, i64 %19
  %21 = load i32, i32* %10, align 4
  %22 = sext i32 %21 to i64
  %23 = getelementptr inbounds [8 x i32], [8 x i32]* %20, i64 0, i64 %22
  %24 = load i32, i32* %23, align 4
  %25 = icmp slt i32 %16, %24
  br i1 %25, label %26, label %27

26:                                               ; preds = %15
  store i32 0, i32* %5, align 4
  br label %32

27:                                               ; preds = %15
  br label %28

28:                                               ; preds = %27
  %29 = load i32, i32* %10, align 4
  %30 = add nsw i32 %29, 1
  store i32 %30, i32* %10, align 4
  br label %11

31:                                               ; preds = %11
  store i32 1, i32* %5, align 4
  br label %32

32:                                               ; preds = %31, %26
  %33 = load i32, i32* %5, align 4
  ret i32 %33
}

; Function Attrs: noinline nounwind uwtable
define dso_local i32 @min(i32 %0, [8 x i32]* %1, i32 %2, i32 %3) #0 {
  %5 = alloca i32, align 4
  %6 = alloca i32, align 4
  %7 = alloca [8 x i32]*, align 8
  %8 = alloca i32, align 4
  %9 = alloca i32, align 4
  %10 = alloca i32, align 4
  store i32 %0, i32* %6, align 4
  store [8 x i32]* %1, [8 x i32]** %7, align 8
  store i32 %2, i32* %8, align 4
  store i32 %3, i32* %9, align 4
  store i32 0, i32* %10, align 4
  br label %11

11:                                               ; preds = %28, %4
  %12 = load i32, i32* %10, align 4
  %13 = load i32, i32* %9, align 4
  %14 = icmp slt i32 %12, %13
  br i1 %14, label %15, label %31

15:                                               ; preds = %11
  %16 = load i32, i32* %6, align 4
  %17 = load [8 x i32]*, [8 x i32]** %7, align 8
  %18 = load i32, i32* %10, align 4
  %19 = sext i32 %18 to i64
  %20 = getelementptr inbounds [8 x i32], [8 x i32]* %17, i64 %19
  %21 = load i32, i32* %8, align 4
  %22 = sext i32 %21 to i64
  %23 = getelementptr inbounds [8 x i32], [8 x i32]* %20, i64 0, i64 %22
  %24 = load i32, i32* %23, align 4
  %25 = icmp sgt i32 %16, %24
  br i1 %25, label %26, label %27

26:                                               ; preds = %15
  store i32 0, i32* %5, align 4
  br label %32

27:                                               ; preds = %15
  br label %28

28:                                               ; preds = %27
  %29 = load i32, i32* %10, align 4
  %30 = add nsw i32 %29, 1
  store i32 %30, i32* %10, align 4
  br label %11

31:                                               ; preds = %11
  store i32 1, i32* %5, align 4
  br label %32

32:                                               ; preds = %31, %26
  %33 = load i32, i32* %5, align 4
  ret i32 %33
}

; Function Attrs: noinline nounwind uwtable
define dso_local i32 @main() #0 {
  %1 = alloca i32, align 4
  %2 = alloca i8, align 1
  %3 = alloca i32, align 4
  %4 = alloca i32, align 4
  %5 = alloca i32, align 4
  %6 = alloca i32, align 4
  %7 = alloca [8 x [8 x i32]], align 16
  %8 = alloca i32, align 4
  %9 = alloca i32, align 4
  store i32 0, i32* %1, align 4
  %10 = call i32 (i8*, ...) @__isoc99_scanf(i8* getelementptr inbounds ([3 x i8], [3 x i8]* @.str, i64 0, i64 0), i32* %3)
  %11 = call i32 @getchar()
  %12 = trunc i32 %11 to i8
  store i8 %12, i8* %2, align 1
  %13 = call i32 (i8*, ...) @__isoc99_scanf(i8* getelementptr inbounds ([3 x i8], [3 x i8]* @.str, i64 0, i64 0), i32* %4)
  store i32 0, i32* %5, align 4
  br label %14

14:                                               ; preds = %35, %0
  %15 = load i32, i32* %5, align 4
  %16 = load i32, i32* %3, align 4
  %17 = icmp slt i32 %15, %16
  br i1 %17, label %18, label %38

18:                                               ; preds = %14
  store i32 0, i32* %6, align 4
  br label %19

19:                                               ; preds = %31, %18
  %20 = load i32, i32* %6, align 4
  %21 = load i32, i32* %4, align 4
  %22 = icmp slt i32 %20, %21
  br i1 %22, label %23, label %34

23:                                               ; preds = %19
  %24 = load i32, i32* %5, align 4
  %25 = sext i32 %24 to i64
  %26 = getelementptr inbounds [8 x [8 x i32]], [8 x [8 x i32]]* %7, i64 0, i64 %25
  %27 = load i32, i32* %6, align 4
  %28 = sext i32 %27 to i64
  %29 = getelementptr inbounds [8 x i32], [8 x i32]* %26, i64 0, i64 %28
  %30 = call i32 (i8*, ...) @__isoc99_scanf(i8* getelementptr inbounds ([3 x i8], [3 x i8]* @.str, i64 0, i64 0), i32* %29)
  br label %31

31:                                               ; preds = %23
  %32 = load i32, i32* %6, align 4
  %33 = add nsw i32 %32, 1
  store i32 %33, i32* %6, align 4
  br label %19

34:                                               ; preds = %19
  br label %35

35:                                               ; preds = %34
  %36 = load i32, i32* %5, align 4
  %37 = add nsw i32 %36, 1
  store i32 %37, i32* %5, align 4
  br label %14

38:                                               ; preds = %14
  store i32 0, i32* %5, align 4
  br label %39

39:                                               ; preds = %85, %38
  %40 = load i32, i32* %5, align 4
  %41 = load i32, i32* %3, align 4
  %42 = icmp slt i32 %40, %41
  br i1 %42, label %43, label %88

43:                                               ; preds = %39
  store i32 0, i32* %6, align 4
  br label %44

44:                                               ; preds = %81, %43
  %45 = load i32, i32* %6, align 4
  %46 = load i32, i32* %4, align 4
  %47 = icmp slt i32 %45, %46
  br i1 %47, label %48, label %84

48:                                               ; preds = %44
  %49 = load i32, i32* %5, align 4
  %50 = sext i32 %49 to i64
  %51 = getelementptr inbounds [8 x [8 x i32]], [8 x [8 x i32]]* %7, i64 0, i64 %50
  %52 = load i32, i32* %6, align 4
  %53 = sext i32 %52 to i64
  %54 = getelementptr inbounds [8 x i32], [8 x i32]* %51, i64 0, i64 %53
  %55 = load i32, i32* %54, align 4
  %56 = getelementptr inbounds [8 x [8 x i32]], [8 x [8 x i32]]* %7, i64 0, i64 0
  %57 = load i32, i32* %5, align 4
  %58 = load i32, i32* %4, align 4
  %59 = call i32 @max(i32 %55, [8 x i32]* %56, i32 %57, i32 %58)
  store i32 %59, i32* %8, align 4
  %60 = load i32, i32* %5, align 4
  %61 = sext i32 %60 to i64
  %62 = getelementptr inbounds [8 x [8 x i32]], [8 x [8 x i32]]* %7, i64 0, i64 %61
  %63 = load i32, i32* %6, align 4
  %64 = sext i32 %63 to i64
  %65 = getelementptr inbounds [8 x i32], [8 x i32]* %62, i64 0, i64 %64
  %66 = load i32, i32* %65, align 4
  %67 = getelementptr inbounds [8 x [8 x i32]], [8 x [8 x i32]]* %7, i64 0, i64 0
  %68 = load i32, i32* %6, align 4
  %69 = load i32, i32* %3, align 4
  %70 = call i32 @min(i32 %66, [8 x i32]* %67, i32 %68, i32 %69)
  store i32 %70, i32* %9, align 4
  %71 = load i32, i32* %8, align 4
  %72 = icmp ne i32 %71, 0
  br i1 %72, label %73, label %80

73:                                               ; preds = %48
  %74 = load i32, i32* %9, align 4
  %75 = icmp ne i32 %74, 0
  br i1 %75, label %76, label %80

76:                                               ; preds = %73
  %77 = load i32, i32* %5, align 4
  %78 = load i32, i32* %6, align 4
  %79 = call i32 (i8*, ...) @printf(i8* getelementptr inbounds ([6 x i8], [6 x i8]* @.str.1, i64 0, i64 0), i32 %77, i32 %78)
  store i32 0, i32* %1, align 4
  br label %90

80:                                               ; preds = %73, %48
  br label %81

81:                                               ; preds = %80
  %82 = load i32, i32* %6, align 4
  %83 = add nsw i32 %82, 1
  store i32 %83, i32* %6, align 4
  br label %44

84:                                               ; preds = %44
  br label %85

85:                                               ; preds = %84
  %86 = load i32, i32* %5, align 4
  %87 = add nsw i32 %86, 1
  store i32 %87, i32* %5, align 4
  br label %39

88:                                               ; preds = %39
  %89 = call i32 (i8*, ...) @printf(i8* getelementptr inbounds ([3 x i8], [3 x i8]* @.str.2, i64 0, i64 0))
  store i32 0, i32* %1, align 4
  br label %90

90:                                               ; preds = %88, %76
  %91 = load i32, i32* %1, align 4
  ret i32 %91
}

declare dso_local i32 @__isoc99_scanf(i8*, ...) #1

declare dso_local i32 @getchar() #1

declare dso_local i32 @printf(i8*, ...) #1


!llvm.module.flags = !{!0}
!llvm.ident = !{!1}

!0 = !{i32 1, !"wchar_size", i32 4}
!1 = !{!"clang version 10.0.0-4ubuntu1 "}
